target datalayout = "e-m:e-p270:32:32-p271:32:32-p272:64:64-i64:64-i128:128-f80:128-n8:16:32:64-S128"
target triple = "x86_64-pc-linux-gnu"

%struct._object = type { i64, ptr }
%"class.nanobind::object" = type { %"class.nanobind::handle" }
%"class.nanobind::handle" = type { ptr }
%struct.Wrapper = type { %"class.nanobind::object" }

; Function Attrs: inlinehint mustprogress nounwind optsize uwtable
define internal void @_ZL10_Py_INCREFP7_object(ptr noundef %0) #11 {
  %2 = alloca ptr, align 8
  store ptr %0, ptr %2, align 8, !tbaa !3
  %3 = load ptr, ptr %2, align 8, !tbaa !3
  %4 = getelementptr inbounds nuw %struct._object, ptr %3, i32 0, i32 0
  %5 = load i64, ptr %4, align 8, !tbaa !26
  %6 = add nsw i64 %5, 1
  store i64 %6, ptr %4, align 8, !tbaa !26
  ret void
}

; Function Attrs: noinline noreturn nounwind optsize uwtable
define linkonce_odr hidden void @__clang_call_terminate(ptr noundef %0) #7 comdat {
  %2 = call ptr @__cxa_begin_catch(ptr %0) #14
  call void @_ZSt9terminatev() #16
  unreachable
}

; Function Attrs: inlinehint mustprogress nounwind optsize uwtable
define internal void @_ZL11_Py_XINCREFP7_object(ptr noundef %0) #11 {
  %2 = alloca ptr, align 8
  store ptr %0, ptr %2, align 8, !tbaa !3
  %3 = load ptr, ptr %2, align 8, !tbaa !3
  %4 = icmp ne ptr %3, null
  br i1 %4, label %5, label %7

5:                                                ; preds = %1
  %6 = load ptr, ptr %2, align 8, !tbaa !3
  call void @_ZL10_Py_INCREFP7_object(ptr noundef %6) #13
  br label %7

7:                                                ; preds = %5, %1
  ret void
}

; Function Attrs: mustprogress nounwind optsize uwtable
define linkonce_odr hidden noundef nonnull align 8 dereferenceable(8) ptr @_ZNKR8nanobind6handle7inc_refEv(ptr noundef nonnull align 8 dereferenceable(8) %0) #8 comdat align 2 personality ptr @__gxx_personality_v0 {
  %2 = alloca ptr, align 8
  store ptr %0, ptr %2, align 8, !tbaa !12
  %3 = load ptr, ptr %2, align 8
  %4 = getelementptr inbounds nuw %"class.nanobind::handle", ptr %3, i32 0, i32 0
  %5 = load ptr, ptr %4, align 8, !tbaa !14
  invoke void @_ZL11_Py_XINCREFP7_object(ptr noundef %5) #13
          to label %6 unwind label %7

6:                                                ; preds = %1
  ret ptr %3

7:                                                ; preds = %1
  %8 = landingpad { ptr, i32 }
          catch ptr null
  %9 = extractvalue { ptr, i32 } %8, 0
  call void @__clang_call_terminate(ptr %9) #16
  unreachable
}

; Function Attrs: mustprogress nounwind optsize uwtable
define linkonce_odr hidden void @_ZN8nanobind6objectC2ERKS0_(ptr noundef nonnull align 8 dereferenceable(8) %0, ptr noundef nonnull align 8 dereferenceable(8) %1) unnamed_addr #8 comdat align 2 {
  %3 = alloca ptr, align 8
  %4 = alloca ptr, align 8
  store ptr %0, ptr %3, align 8, !tbaa !24
  store ptr %1, ptr %4, align 8, !tbaa !24
  %5 = load ptr, ptr %3, align 8
  %6 = load ptr, ptr %4, align 8, !tbaa !24
  call void @llvm.memcpy.p0.p0.i64(ptr align 8 %5, ptr align 8 %6, i64 8, i1 false)
  %7 = call noundef nonnull align 8 dereferenceable(8) ptr @_ZNKR8nanobind6handle7inc_refEv(ptr noundef nonnull align 8 dereferenceable(8) %5) #15
  ret void
}

; Function Attrs: inlinehint mustprogress optsize uwtable
define internal void @_ZZL29nanobind_init_test_typing_extRN8nanobind7module_EEN7WrapperC2ERKS2_(ptr noundef nonnull align 8 dereferenceable(8) %0, ptr noundef nonnull align 8 dereferenceable(8) %1) unnamed_addr #9 align 2 {
  %3 = alloca ptr, align 8
  %4 = alloca ptr, align 8
  store ptr %0, ptr %3, align 8, !tbaa !268
  store ptr %1, ptr %4, align 8, !tbaa !268
  %5 = load ptr, ptr %3, align 8
  %6 = getelementptr inbounds nuw %struct.Wrapper, ptr %5, i32 0, i32 0
  %7 = load ptr, ptr %4, align 8, !tbaa !268
  %8 = getelementptr inbounds nuw %struct.Wrapper, ptr %7, i32 0, i32 0
  call void @_ZN8nanobind6objectC2ERKS0_(ptr noundef nonnull align 8 dereferenceable(8) %6, ptr noundef nonnull align 8 dereferenceable(8) %8) #13
  ret void
}

; Function Attrs: mustprogress optsize uwtable
define internal void @_ZN8nanobind6detail9wrap_copyIZL29nanobind_init_test_typing_extRNS_7module_EE7WrapperEEvPvPKv(ptr noundef %0, ptr noundef %1) #0 {
  %3 = alloca ptr, align 8
  %4 = alloca ptr, align 8
  store ptr %0, ptr %3, align 8, !tbaa !30
  store ptr %1, ptr %4, align 8, !tbaa !30
  %5 = load ptr, ptr %3, align 8, !tbaa !30
  %6 = load ptr, ptr %4, align 8, !tbaa !30
  call void @_ZZL29nanobind_init_test_typing_extRN8nanobind7module_EEN7WrapperC2ERKS2_(ptr noundef nonnull align 8 dereferenceable(8) %5, ptr noundef nonnull align 8 dereferenceable(8) %6) #13
  ret void
}