; Function Attrs: mustprogress nofree norecurse nosync nounwind optsize willreturn memory(readwrite, inaccessiblemem: none) uwtable
define internal void @_ZN8nanobind6detail9wrap_copyIZL29nanobind_init_test_typing_extRNS_7module_EE7WrapperEEvPvPKv(ptr noundef writeonly captures(none) initializes((0, 8)) %0, ptr noundef readonly captures(none) %1) #13 personality ptr @__gxx_personality_v0 {
  %.val = load i64, ptr %1, align 8
  store i64 %.val, ptr %0, align 8
  %.not.i.i.i.i = icmp eq i64 %.val, 0
  br i1 %.not.i.i.i.i, label %_ZZL29nanobind_init_test_typing_extRN8nanobind7module_EEN7WrapperC2ERKS2_.exit, label %3

3:                                                ; preds = %2
  %4 = inttoptr i64 %.val to ptr
  %5 = load i64, ptr %4, align 8, !tbaa !70
  %6 = add nsw i64 %5, 1
  store i64 %6, ptr %4, align 8, !tbaa !70
  br label %_ZZL29nanobind_init_test_typing_extRN8nanobind7module_EEN7WrapperC2ERKS2_.exit

_ZZL29nanobind_init_test_typing_extRN8nanobind7module_EEN7WrapperC2ERKS2_.exit: ; preds = %2, %3
  ret void
}